; Function Attrs: mustprogress nofree uwtable
define hidden noundef i64 @_ZN4test4readEiPvm(i32 noundef %0, ptr noundef captures(none) %1, i64 noundef %2) local_unnamed_addr #9 {
  %4 = load i32, ptr @_ZN12_GLOBAL__N_110read_countE, align 4, !tbaa !10
  %.not = icmp eq i32 %4, 0
  br i1 %.not, label %9, label %5

5:                                                ; preds = %3
  %6 = add nsw i32 %4, 1
  store i32 %6, ptr @_ZN12_GLOBAL__N_110read_countE, align 4, !tbaa !10
  %.not5 = icmp eq i32 %4, 3
  br i1 %.not5, label %9, label %7

7:                                                ; preds = %5
  %8 = tail call ptr @__errno_location() #28
  store i32 4, ptr %8, align 4, !tbaa !10
  br label %11

9:                                                ; preds = %5, %3
  %10 = tail call i64 @read(i32 noundef %0, ptr noundef %1, i64 noundef %2)
  br label %11

11:                                               ; preds = %9, %7
  %.0 = phi i64 [ -1, %7 ], [ %10, %9 ]
  ret i64 %.0
}